target datalayout = "e-m:e-p270:32:32-p271:32:32-p272:64:64-i64:64-i128:128-f80:128-n8:16:32:64-S128"
target triple = "x86_64-pc-linux-gnu"

%struct.AVRational = type { i32, i32 }
%struct.V4L2Context = type { ptr, i32, i32, i32, %struct.v4l2_format, i32, i32, %struct.AVRational, ptr, i32, i32, i32 }
%struct.v4l2_format = type { i32, %union.anon }
%union.anon = type { %struct.v4l2_window, [144 x i8] }
%struct.v4l2_window = type { %struct.v4l2_rect, i32, i32, ptr, i32, ptr, i8 }
%struct.v4l2_rect = type { i32, i32, i32, i32 }
%struct.V4L2m2mContext = type { [4096 x i8], i32, %struct.V4L2Context, %struct.V4L2Context, ptr, %union.sem_t, i32, i32, i32, %struct.AVPacket, ptr, ptr, ptr }
%union.sem_t = type { i64, [24 x i8] }
%struct.AVPacket = type { ptr, i64, i64, ptr, i32, i32, i32, ptr, i32, i64, i64, ptr, ptr, %struct.AVRational }
%struct.V4L2Buffer = type { ptr, ptr, i32, [8 x %struct.V4L2Plane_info], i32, %struct.v4l2_buffer, [8 x %struct.v4l2_plane], i32, i32 }
%struct.V4L2Plane_info = type { i32, ptr, i64 }
%struct.v4l2_buffer = type { i32, i32, i32, i32, i32, %struct.timeval, %struct.v4l2_timecode, i32, i32, %union.anon.2, i32, i32, %union.anon.3 }
%struct.timeval = type { i64, i64 }
%struct.v4l2_timecode = type { i32, i32, i8, i8, i8, i8, [4 x i8] }
%union.anon.2 = type { i64 }
%union.anon.3 = type { i32 }
%struct.v4l2_plane = type { i32, i32, %union.anon.4, i32, [11 x i32] }
%union.anon.4 = type { i64 }
%struct.v4l2_requestbuffers = type { i32, i32, i32, i32, i8, [3 x i8] }

@.str.17 = private unnamed_addr constant [22 x i8] c"%s unmap plane (%s))\0A\00", align 1

; Function Attrs: inlinehint nounwind uwtable
define internal ptr @ctx_to_m2mctx(ptr noundef %0) #3 {
  %2 = alloca ptr, align 8
  %3 = alloca ptr, align 8
  %4 = alloca ptr, align 8
  %5 = alloca ptr, align 8
  %6 = alloca ptr, align 8
  store ptr %0, ptr %2, align 8, !tbaa !4
  %7 = load ptr, ptr %2, align 8, !tbaa !4
  %8 = getelementptr inbounds nuw %struct.V4L2Context, ptr %7, i32 0, i32 1
  %9 = load i32, ptr %8, align 8, !tbaa !11
  %10 = icmp eq i32 %9, 2
  br i1 %10, label %46, label %11

11:                                               ; preds = %1
  %12 = load ptr, ptr %2, align 8, !tbaa !4
  %13 = getelementptr inbounds nuw %struct.V4L2Context, ptr %12, i32 0, i32 1
  %14 = load i32, ptr %13, align 8, !tbaa !11
  %15 = icmp eq i32 %14, 10
  br i1 %15, label %46, label %16

16:                                               ; preds = %11
  %17 = load ptr, ptr %2, align 8, !tbaa !4
  %18 = getelementptr inbounds nuw %struct.V4L2Context, ptr %17, i32 0, i32 1
  %19 = load i32, ptr %18, align 8, !tbaa !11
  %20 = icmp eq i32 %19, 3
  br i1 %20, label %46, label %21

21:                                               ; preds = %16
  %22 = load ptr, ptr %2, align 8, !tbaa !4
  %23 = getelementptr inbounds nuw %struct.V4L2Context, ptr %22, i32 0, i32 1
  %24 = load i32, ptr %23, align 8, !tbaa !11
  %25 = icmp eq i32 %24, 8
  br i1 %25, label %46, label %26

26:                                               ; preds = %21
  %27 = load ptr, ptr %2, align 8, !tbaa !4
  %28 = getelementptr inbounds nuw %struct.V4L2Context, ptr %27, i32 0, i32 1
  %29 = load i32, ptr %28, align 8, !tbaa !11
  %30 = icmp eq i32 %29, 5
  br i1 %30, label %46, label %31

31:                                               ; preds = %26
  %32 = load ptr, ptr %2, align 8, !tbaa !4
  %33 = getelementptr inbounds nuw %struct.V4L2Context, ptr %32, i32 0, i32 1
  %34 = load i32, ptr %33, align 8, !tbaa !11
  %35 = icmp eq i32 %34, 7
  br i1 %35, label %46, label %36

36:                                               ; preds = %31
  %37 = load ptr, ptr %2, align 8, !tbaa !4
  %38 = getelementptr inbounds nuw %struct.V4L2Context, ptr %37, i32 0, i32 1
  %39 = load i32, ptr %38, align 8, !tbaa !11
  %40 = icmp eq i32 %39, 12
  br i1 %40, label %46, label %41

41:                                               ; preds = %36
  %42 = load ptr, ptr %2, align 8, !tbaa !4
  %43 = getelementptr inbounds nuw %struct.V4L2Context, ptr %42, i32 0, i32 1
  %44 = load i32, ptr %43, align 8, !tbaa !11
  %45 = icmp eq i32 %44, 14
  br i1 %45, label %46, label %51

46:                                               ; preds = %41, %36, %31, %26, %21, %16, %11, %1
  call void @llvm.lifetime.start.p0(i64 8, ptr %3) #8
  %47 = load ptr, ptr %2, align 8, !tbaa !4
  store ptr %47, ptr %3, align 8, !tbaa !4
  %48 = load ptr, ptr %3, align 8, !tbaa !4
  %49 = getelementptr inbounds i8, ptr %48, i64 -4376
  store ptr %49, ptr %4, align 8, !tbaa !27
  call void @llvm.lifetime.end.p0(i64 8, ptr %3) #8
  %50 = load ptr, ptr %4, align 8, !tbaa !27
  br label %56

51:                                               ; preds = %41
  call void @llvm.lifetime.start.p0(i64 8, ptr %5) #8
  %52 = load ptr, ptr %2, align 8, !tbaa !4
  store ptr %52, ptr %5, align 8, !tbaa !4
  %53 = load ptr, ptr %5, align 8, !tbaa !4
  %54 = getelementptr inbounds i8, ptr %53, i64 -4104
  store ptr %54, ptr %6, align 8, !tbaa !27
  call void @llvm.lifetime.end.p0(i64 8, ptr %5) #8
  %55 = load ptr, ptr %6, align 8, !tbaa !27
  br label %56

56:                                               ; preds = %51, %46
  %57 = phi ptr [ %50, %46 ], [ %55, %51 ]
  ret ptr %57
}

; Function Attrs: inlinehint nounwind uwtable
define internal ptr @av_make_error_string(ptr noundef %0, i64 noundef %1, i32 noundef %2) #3 {
  %4 = alloca ptr, align 8
  %5 = alloca i64, align 8
  %6 = alloca i32, align 4
  store ptr %0, ptr %4, align 8, !tbaa !101
  store i64 %1, ptr %5, align 8, !tbaa !65
  store i32 %2, ptr %6, align 4, !tbaa !9
  %7 = load i32, ptr %6, align 4, !tbaa !9
  %8 = load ptr, ptr %4, align 8, !tbaa !101
  %9 = load i64, ptr %5, align 8, !tbaa !65
  %10 = call i32 @av_strerror(i32 noundef %7, ptr noundef %8, i64 noundef %9)
  %11 = load ptr, ptr %4, align 8, !tbaa !101
  ret ptr %11
}

; Function Attrs: inlinehint nounwind uwtable
define internal ptr @logger(ptr noundef %0) #3 {
  %2 = alloca ptr, align 8
  store ptr %0, ptr %2, align 8, !tbaa !4
  %3 = load ptr, ptr %2, align 8, !tbaa !4
  %4 = call ptr @ctx_to_m2mctx(ptr noundef %3)
  %5 = getelementptr inbounds nuw %struct.V4L2m2mContext, ptr %4, i32 0, i32 4
  %6 = load ptr, ptr %5, align 8, !tbaa !32
  ret ptr %6
}

; Function Attrs: nounwind uwtable
define internal i32 @v4l2_release_buffers(ptr noundef %0) #0 {
  %2 = alloca ptr, align 8
  %3 = alloca %struct.v4l2_requestbuffers, align 4
  %4 = alloca i32, align 4
  %5 = alloca i32, align 4
  %6 = alloca ptr, align 8
  %7 = alloca ptr, align 8
  %8 = alloca [64 x i8], align 1
  store ptr %0, ptr %2, align 8, !tbaa !4
  call void @llvm.lifetime.start.p0(i64 20, ptr %3) #8
  %9 = getelementptr inbounds nuw %struct.v4l2_requestbuffers, ptr %3, i32 0, i32 0
  store i32 0, ptr %9, align 4, !tbaa !85
  %10 = getelementptr inbounds nuw %struct.v4l2_requestbuffers, ptr %3, i32 0, i32 1
  %11 = load ptr, ptr %2, align 8, !tbaa !4
  %12 = getelementptr inbounds nuw %struct.V4L2Context, ptr %11, i32 0, i32 1
  %13 = load i32, ptr %12, align 8, !tbaa !11
  store i32 %13, ptr %10, align 4, !tbaa !87
  %14 = getelementptr inbounds nuw %struct.v4l2_requestbuffers, ptr %3, i32 0, i32 2
  store i32 1, ptr %14, align 4, !tbaa !88
  %15 = getelementptr inbounds nuw %struct.v4l2_requestbuffers, ptr %3, i32 0, i32 3
  store i32 0, ptr %15, align 4, !tbaa !89
  %16 = getelementptr inbounds nuw %struct.v4l2_requestbuffers, ptr %3, i32 0, i32 4
  store i8 0, ptr %16, align 4, !tbaa !90
  %17 = getelementptr inbounds nuw %struct.v4l2_requestbuffers, ptr %3, i32 0, i32 5
  call void @llvm.memset.p0.i64(ptr align 1 %17, i8 0, i64 3, i1 false)
  call void @llvm.lifetime.start.p0(i64 4, ptr %4) #8
  call void @llvm.lifetime.start.p0(i64 4, ptr %5) #8
  store i32 0, ptr %4, align 4, !tbaa !9
  br label %18

18:                                               ; preds = %78, %1
  %19 = load i32, ptr %4, align 4, !tbaa !9
  %20 = load ptr, ptr %2, align 8, !tbaa !4
  %21 = getelementptr inbounds nuw %struct.V4L2Context, ptr %20, i32 0, i32 9
  %22 = load i32, ptr %21, align 8, !tbaa !35
  %23 = icmp slt i32 %19, %22
  br i1 %23, label %24, label %81

24:                                               ; preds = %18
  call void @llvm.lifetime.start.p0(i64 8, ptr %6) #8
  %25 = load ptr, ptr %2, align 8, !tbaa !4
  %26 = getelementptr inbounds nuw %struct.V4L2Context, ptr %25, i32 0, i32 8
  %27 = load ptr, ptr %26, align 8, !tbaa !36
  %28 = load i32, ptr %4, align 4, !tbaa !9
  %29 = sext i32 %28 to i64
  %30 = getelementptr inbounds %struct.V4L2Buffer, ptr %27, i64 %29
  store ptr %30, ptr %6, align 8, !tbaa !31
  store i32 0, ptr %5, align 4, !tbaa !9
  br label %31

31:                                               ; preds = %74, %24
  %32 = load i32, ptr %5, align 4, !tbaa !9
  %33 = load ptr, ptr %6, align 8, !tbaa !31
  %34 = getelementptr inbounds nuw %struct.V4L2Buffer, ptr %33, i32 0, i32 4
  %35 = load i32, ptr %34, align 8, !tbaa !91
  %36 = icmp slt i32 %32, %35
  br i1 %36, label %37, label %77

37:                                               ; preds = %31
  call void @llvm.lifetime.start.p0(i64 8, ptr %7) #8
  %38 = load ptr, ptr %6, align 8, !tbaa !31
  %39 = getelementptr inbounds nuw %struct.V4L2Buffer, ptr %38, i32 0, i32 3
  %40 = load i32, ptr %5, align 4, !tbaa !9
  %41 = sext i32 %40 to i64
  %42 = getelementptr inbounds [8 x %struct.V4L2Plane_info], ptr %39, i64 0, i64 %41
  store ptr %42, ptr %7, align 8, !tbaa !92
  %43 = load ptr, ptr %7, align 8, !tbaa !92
  %44 = getelementptr inbounds nuw %struct.V4L2Plane_info, ptr %43, i32 0, i32 1
  %45 = load ptr, ptr %44, align 8, !tbaa !94
  %46 = icmp ne ptr %45, null
  br i1 %46, label %47, label %73

47:                                               ; preds = %37
  %48 = load ptr, ptr %7, align 8, !tbaa !92
  %49 = getelementptr inbounds nuw %struct.V4L2Plane_info, ptr %48, i32 0, i32 2
  %50 = load i64, ptr %49, align 8, !tbaa !96
  %51 = icmp ne i64 %50, 0
  br i1 %51, label %52, label %73

52:                                               ; preds = %47
  %53 = load ptr, ptr %7, align 8, !tbaa !92
  %54 = getelementptr inbounds nuw %struct.V4L2Plane_info, ptr %53, i32 0, i32 1
  %55 = load ptr, ptr %54, align 8, !tbaa !94
  %56 = load ptr, ptr %7, align 8, !tbaa !92
  %57 = getelementptr inbounds nuw %struct.V4L2Plane_info, ptr %56, i32 0, i32 2
  %58 = load i64, ptr %57, align 8, !tbaa !96
  %59 = call i32 @munmap(ptr noundef %55, i64 noundef %58) #8
  %60 = icmp slt i32 %59, 0
  br i1 %60, label %61, label %72

61:                                               ; preds = %52
  %62 = load ptr, ptr %2, align 8, !tbaa !4
  %63 = call ptr @logger(ptr noundef %62)
  %64 = load ptr, ptr %2, align 8, !tbaa !4
  %65 = getelementptr inbounds nuw %struct.V4L2Context, ptr %64, i32 0, i32 0
  %66 = load ptr, ptr %65, align 8, !tbaa !29
  call void @llvm.memset.p0.i64(ptr align 1 %8, i8 0, i64 64, i1 false)
  %67 = getelementptr inbounds [64 x i8], ptr %8, i64 0, i64 0
  %68 = call ptr @__errno_location() #9
  %69 = load i32, ptr %68, align 4, !tbaa !9
  %70 = sub nsw i32 0, %69
  %71 = call ptr @av_make_error_string(ptr noundef %67, i64 noundef 64, i32 noundef %70)
  call void (ptr, i32, ptr, ...) @av_log(ptr noundef %63, i32 noundef 16, ptr noundef @.str.17, ptr noundef %66, ptr noundef %71)
  br label %72

72:                                               ; preds = %61, %52
  br label %73

73:                                               ; preds = %72, %47, %37
  call void @llvm.lifetime.end.p0(i64 8, ptr %7) #8
  br label %74

74:                                               ; preds = %73
  %75 = load i32, ptr %5, align 4, !tbaa !9
  %76 = add nsw i32 %75, 1
  store i32 %76, ptr %5, align 4, !tbaa !9
  br label %31, !llvm.loop !97

77:                                               ; preds = %31
  call void @llvm.lifetime.end.p0(i64 8, ptr %6) #8
  br label %78

78:                                               ; preds = %77
  %79 = load i32, ptr %4, align 4, !tbaa !9
  %80 = add nsw i32 %79, 1
  store i32 %80, ptr %4, align 4, !tbaa !9
  br label %18, !llvm.loop !98

81:                                               ; preds = %18
  %82 = load ptr, ptr %2, align 8, !tbaa !4
  %83 = call ptr @ctx_to_m2mctx(ptr noundef %82)
  %84 = getelementptr inbounds nuw %struct.V4L2m2mContext, ptr %83, i32 0, i32 1
  %85 = load i32, ptr %84, align 8, !tbaa !17
  %86 = call i32 (i32, i64, ...) @ioctl(i32 noundef %85, i64 noundef 3222558216, ptr noundef %3) #8
  call void @llvm.lifetime.end.p0(i64 4, ptr %5) #8
  call void @llvm.lifetime.end.p0(i64 4, ptr %4) #8
  call void @llvm.lifetime.end.p0(i64 20, ptr %3) #8
  ret i32 %86
}