; Function Attrs: nounwind uwtable
define internal fastcc i32 @v4l2_release_buffers(ptr noundef readonly captures(none) %0) unnamed_addr #0 {
  %2 = alloca %struct.v4l2_requestbuffers, align 4
  %3 = alloca [64 x i8], align 1
  call void @llvm.lifetime.start.p0(i64 20, ptr nonnull %2) #8
  store i32 0, ptr %2, align 4, !tbaa !101
  %4 = getelementptr inbounds nuw i8, ptr %2, i64 4
  %5 = getelementptr inbounds nuw i8, ptr %0, i64 8
  %6 = load i32, ptr %5, align 8, !tbaa !4
  store i32 %6, ptr %4, align 4, !tbaa !103
  %7 = getelementptr inbounds nuw i8, ptr %2, i64 8
  store i32 1, ptr %7, align 4, !tbaa !104
  %8 = getelementptr inbounds nuw i8, ptr %2, i64 12
  %9 = getelementptr inbounds nuw i8, ptr %0, i64 256
  store i64 0, ptr %8, align 4
  %10 = load i32, ptr %9, align 8, !tbaa !30
  %11 = icmp sgt i32 %10, 0
  br i1 %11, label %.lr.ph24, label %._crit_edge25

.lr.ph24:                                         ; preds = %1
  %12 = getelementptr inbounds nuw i8, ptr %0, i64 248
  %invariant.gep = getelementptr i8, ptr %0, i64 4648
  br label %13

13:                                               ; preds = %.lr.ph24, %._crit_edge
  %14 = phi i32 [ %10, %.lr.ph24 ], [ %45, %._crit_edge ]
  %indvars.iv27 = phi i64 [ 0, %.lr.ph24 ], [ %indvars.iv.next28, %._crit_edge ]
  %15 = load ptr, ptr %12, align 8, !tbaa !31
  %16 = getelementptr inbounds nuw %struct.V4L2Buffer, ptr %15, i64 %indvars.iv27
  %17 = getelementptr inbounds nuw i8, ptr %16, i64 216
  %18 = load i32, ptr %17, align 8, !tbaa !105
  %19 = icmp sgt i32 %18, 0
  br i1 %19, label %.lr.ph, label %._crit_edge

.lr.ph:                                           ; preds = %13
  %20 = getelementptr inbounds nuw i8, ptr %16, i64 24
  br label %21

21:                                               ; preds = %.lr.ph, %41
  %indvars.iv = phi i64 [ 0, %.lr.ph ], [ %indvars.iv.next, %41 ]
  %22 = getelementptr inbounds nuw [8 x %struct.V4L2Plane_info], ptr %20, i64 0, i64 %indvars.iv
  %23 = getelementptr inbounds nuw i8, ptr %22, i64 8
  %24 = load ptr, ptr %23, align 8, !tbaa !106
  %.not = icmp eq ptr %24, null
  br i1 %.not, label %41, label %25

25:                                               ; preds = %21
  %26 = getelementptr inbounds nuw i8, ptr %22, i64 16
  %27 = load i64, ptr %26, align 8, !tbaa !108
  %.not20 = icmp eq i64 %27, 0
  br i1 %.not20, label %41, label %28

28:                                               ; preds = %25
  %29 = call i32 @munmap(ptr noundef nonnull %24, i64 noundef %27) #8
  %30 = icmp slt i32 %29, 0
  br i1 %30, label %31, label %41

31:                                               ; preds = %28
  %32 = load i32, ptr %5, align 8, !tbaa !4
  %switch.tableidx = add i32 %32, -2
  %33 = icmp ult i32 %switch.tableidx, 13
  br i1 %33, label %switch.lookup, label %logger.exit

switch.lookup:                                    ; preds = %31
  %34 = zext nneg i32 %switch.tableidx to i64
  %switch.gep = getelementptr inbounds nuw [13 x i64], ptr @switch.table.ff_v4l2_context_init.34, i64 0, i64 %34
  %switch.load = load i64, ptr %switch.gep, align 8
  br label %logger.exit

logger.exit:                                      ; preds = %31, %switch.lookup
  %.sink.i.i = phi i64 [ %switch.load, %switch.lookup ], [ -4104, %31 ]
  %gep = getelementptr i8, ptr %invariant.gep, i64 %.sink.i.i
  %35 = load ptr, ptr %gep, align 8, !tbaa !25
  %36 = load ptr, ptr %0, align 8, !tbaa !26
  call void @llvm.memset.p0.i64(ptr noundef nonnull align 1 dereferenceable(64) %3, i8 0, i64 64, i1 false)
  %37 = tail call ptr @__errno_location() #9
  %38 = load i32, ptr %37, align 4, !tbaa !14
  %39 = sub nsw i32 0, %38
  %40 = call i32 @av_strerror(i32 noundef %39, ptr noundef nonnull %3, i64 noundef 64) #8
  call void (ptr, i32, ptr, ...) @av_log(ptr noundef %35, i32 noundef 16, ptr noundef nonnull @.str.17, ptr noundef %36, ptr noundef nonnull %3) #8
  br label %41

41:                                               ; preds = %28, %logger.exit, %25, %21
  %indvars.iv.next = add nuw nsw i64 %indvars.iv, 1
  %42 = load i32, ptr %17, align 8, !tbaa !105
  %43 = sext i32 %42 to i64
  %44 = icmp slt i64 %indvars.iv.next, %43
  br i1 %44, label %21, label %._crit_edge.loopexit, !llvm.loop !109

._crit_edge.loopexit:                             ; preds = %41
  %.pre = load i32, ptr %9, align 8, !tbaa !30
  br label %._crit_edge

._crit_edge:                                      ; preds = %._crit_edge.loopexit, %13
  %45 = phi i32 [ %.pre, %._crit_edge.loopexit ], [ %14, %13 ]
  %indvars.iv.next28 = add nuw nsw i64 %indvars.iv27, 1
  %46 = sext i32 %45 to i64
  %47 = icmp slt i64 %indvars.iv.next28, %46
  br i1 %47, label %13, label %._crit_edge25.loopexit, !llvm.loop !110

._crit_edge25.loopexit:                           ; preds = %._crit_edge
  %.pre30 = load i32, ptr %5, align 8, !tbaa !4
  br label %._crit_edge25

._crit_edge25:                                    ; preds = %._crit_edge25.loopexit, %1
  %48 = phi i32 [ %.pre30, %._crit_edge25.loopexit ], [ %6, %1 ]
  %switch.tableidx32 = add i32 %48, -2
  %49 = icmp ult i32 %switch.tableidx32, 13
  br i1 %49, label %switch.lookup31, label %ctx_to_m2mctx.exit

switch.lookup31:                                  ; preds = %._crit_edge25
  %50 = zext nneg i32 %switch.tableidx32 to i64
  %switch.gep33 = getelementptr inbounds nuw [13 x i64], ptr @switch.table.ff_v4l2_context_init.34, i64 0, i64 %50
  %switch.load34 = load i64, ptr %switch.gep33, align 8
  br label %ctx_to_m2mctx.exit

ctx_to_m2mctx.exit:                               ; preds = %._crit_edge25, %switch.lookup31
  %.sink.i = phi i64 [ %switch.load34, %switch.lookup31 ], [ -4104, %._crit_edge25 ]
  %51 = getelementptr inbounds i8, ptr %0, i64 %.sink.i
  %52 = getelementptr inbounds nuw i8, ptr %51, i64 4096
  %53 = load i32, ptr %52, align 8, !tbaa !15
  %54 = call i32 (i32, i64, ...) @ioctl(i32 noundef %53, i64 noundef 3222558216, ptr noundef nonnull %2) #8
  call void @llvm.lifetime.end.p0(i64 20, ptr nonnull %2) #8
  ret i32 %54
}